; ModuleID = 'source-C-CXX/36/756.cpp'
source_filename = "source-C-CXX/36/756.cpp"
target datalayout = "e-m:e-p270:32:32-p271:32:32-p272:64:64-i64:64-f80:128-n8:16:32:64-S128"
target triple = "x86_64-pc-linux-gnu"

%"class.std::ios_base::Init" = type { i8 }
%"class.std::basic_istream" = type { i32 (...)**, i64, %"class.std::basic_ios" }
%"class.std::basic_ios" = type { %"class.std::ios_base", %"class.std::basic_ostream"*, i8, i8, %"class.std::basic_streambuf"*, %"class.std::ctype"*, %"class.std::num_put"*, %"class.std::num_get"* }
%"class.std::ios_base" = type { i32 (...)**, i64, i64, i32, i32, i32, %"struct.std::ios_base::_Callback_list"*, %"struct.std::ios_base::_Words", [8 x %"struct.std::ios_base::_Words"], i32, %"struct.std::ios_base::_Words"*, %"class.std::locale" }
%"struct.std::ios_base::_Callback_list" = type { %"struct.std::ios_base::_Callback_list"*, void (i32, %"class.std::ios_base"*, i32)*, i32, i32 }
%"struct.std::ios_base::_Words" = type { i8*, i64 }
%"class.std::locale" = type { %"class.std::locale::_Impl"* }
%"class.std::locale::_Impl" = type { i32, %"class.std::locale::facet"**, i64, %"class.std::locale::facet"**, i8** }
%"class.std::locale::facet" = type <{ i32 (...)**, i32, [4 x i8] }>
%"class.std::basic_ostream" = type { i32 (...)**, %"class.std::basic_ios" }
%"class.std::basic_streambuf" = type { i32 (...)**, i8*, i8*, i8*, i8*, i8*, i8*, %"class.std::locale" }
%"class.std::ctype" = type <{ %"class.std::locale::facet.base", [4 x i8], %struct.__locale_struct*, i8, [7 x i8], i32*, i32*, i16*, i8, [256 x i8], [256 x i8], i8, [6 x i8] }>
%"class.std::locale::facet.base" = type <{ i32 (...)**, i32 }>
%struct.__locale_struct = type { [13 x %struct.__locale_data*], i16*, i32*, i32*, [13 x i8*] }
%struct.__locale_data = type opaque
%"class.std::num_put" = type { %"class.std::locale::facet.base", [4 x i8] }
%"class.std::num_get" = type { %"class.std::locale::facet.base", [4 x i8] }

@_ZStL8__ioinit = internal global %"class.std::ios_base::Init" zeroinitializer, align 1
@__dso_handle = external hidden global i8
@_ZSt3cin = external global %"class.std::basic_istream", align 8
@_ZSt4cout = external global %"class.std::basic_ostream", align 8
@.str = private unnamed_addr constant [3 x i8] c"no\00", align 1
@llvm.global_ctors = appending global [1 x { i32, void ()*, i8* }] [{ i32, void ()*, i8* } { i32 65535, void ()* @_GLOBAL__sub_I_756.cpp, i8* null }]

declare void @_ZNSt8ios_base4InitC1Ev(%"class.std::ios_base::Init"* nonnull align 1 dereferenceable(1)) unnamed_addr #0

; Function Attrs: nounwind
declare void @_ZNSt8ios_base4InitD1Ev(%"class.std::ios_base::Init"* nonnull align 1 dereferenceable(1)) unnamed_addr #1

; Function Attrs: nofree nounwind
declare i32 @__cxa_atexit(void (i8*)*, i8*, i8*) local_unnamed_addr #2

; Function Attrs: mustprogress norecurse sspstrong uwtable
define dso_local i32 @main() local_unnamed_addr #3 {
  %1 = alloca i8, align 1
  %2 = alloca [100000 x i8], align 16
  %3 = alloca i32, align 4
  %4 = alloca [26 x i32], align 16
  %5 = getelementptr inbounds [100000 x i8], [100000 x i8]* %2, i64 0, i64 0
  call void @llvm.lifetime.start.p0i8(i64 100000, i8* nonnull %5) #9
  %6 = bitcast i32* %3 to i8*
  call void @llvm.lifetime.start.p0i8(i64 4, i8* nonnull %6) #9
  %7 = bitcast [26 x i32]* %4 to i8*
  call void @llvm.lifetime.start.p0i8(i64 104, i8* nonnull %7) #9
  %8 = call nonnull align 8 dereferenceable(16) %"class.std::basic_istream"* @_ZNSirsERi(%"class.std::basic_istream"* nonnull align 8 dereferenceable(16) @_ZSt3cin, i32* nonnull align 4 dereferenceable(4) %3)
  %9 = load i32, i32* %3, align 4, !tbaa !5
  %10 = icmp sgt i32 %9, 0
  br i1 %10, label %11, label %136

11:                                               ; preds = %0, %132
  %12 = phi i32 [ %133, %132 ], [ 0, %0 ]
  call void @_ZSt17__istream_extractRSiPcl(%"class.std::basic_istream"* nonnull align 8 dereferenceable(16) @_ZSt3cin, i8* nonnull %5, i64 100000)
  call void @llvm.memset.p0i8.i64(i8* noundef nonnull align 16 dereferenceable(104) %7, i8 0, i64 104, i1 false)
  %13 = call i64 @strlen(i8* noundef nonnull %5) #10
  %14 = icmp eq i64 %13, 0
  br i1 %14, label %31, label %15

15:                                               ; preds = %11
  %16 = and i64 %13, 1
  %17 = icmp eq i64 %13, 1
  br i1 %17, label %20, label %18

18:                                               ; preds = %15
  %19 = and i64 %13, -2
  br label %34

20:                                               ; preds = %34, %15
  %21 = phi i64 [ 0, %15 ], [ %52, %34 ]
  %22 = icmp eq i64 %16, 0
  br i1 %22, label %31, label %23

23:                                               ; preds = %20
  %24 = getelementptr inbounds [100000 x i8], [100000 x i8]* %2, i64 0, i64 %21
  %25 = load i8, i8* %24, align 1, !tbaa !9
  %26 = sext i8 %25 to i64
  %27 = add nsw i64 %26, -97
  %28 = getelementptr inbounds [26 x i32], [26 x i32]* %4, i64 0, i64 %27
  %29 = load i32, i32* %28, align 4, !tbaa !5
  %30 = add nsw i32 %29, 1
  store i32 %30, i32* %28, align 4, !tbaa !5
  br label %31

31:                                               ; preds = %23, %20, %11
  %32 = call i64 @strlen(i8* noundef nonnull %5) #10
  %33 = icmp eq i64 %32, 0
  br i1 %33, label %132, label %55

34:                                               ; preds = %34, %18
  %35 = phi i64 [ 0, %18 ], [ %52, %34 ]
  %36 = phi i64 [ %19, %18 ], [ %53, %34 ]
  %37 = getelementptr inbounds [100000 x i8], [100000 x i8]* %2, i64 0, i64 %35
  %38 = load i8, i8* %37, align 2, !tbaa !9
  %39 = sext i8 %38 to i64
  %40 = add nsw i64 %39, -97
  %41 = getelementptr inbounds [26 x i32], [26 x i32]* %4, i64 0, i64 %40
  %42 = load i32, i32* %41, align 4, !tbaa !5
  %43 = add nsw i32 %42, 1
  store i32 %43, i32* %41, align 4, !tbaa !5
  %44 = or i64 %35, 1
  %45 = getelementptr inbounds [100000 x i8], [100000 x i8]* %2, i64 0, i64 %44
  %46 = load i8, i8* %45, align 1, !tbaa !9
  %47 = sext i8 %46 to i64
  %48 = add nsw i64 %47, -97
  %49 = getelementptr inbounds [26 x i32], [26 x i32]* %4, i64 0, i64 %48
  %50 = load i32, i32* %49, align 4, !tbaa !5
  %51 = add nsw i32 %50, 1
  store i32 %51, i32* %49, align 4, !tbaa !5
  %52 = add nuw nsw i64 %35, 2
  %53 = add i64 %36, -2
  %54 = icmp eq i64 %53, 0
  br i1 %54, label %20, label %34, !llvm.loop !10

55:                                               ; preds = %31, %128
  %56 = phi i64 [ %129, %128 ], [ 0, %31 ]
  %57 = phi i64 [ %130, %128 ], [ %32, %31 ]
  %58 = getelementptr inbounds [100000 x i8], [100000 x i8]* %2, i64 0, i64 %56
  %59 = load i8, i8* %58, align 1, !tbaa !9
  %60 = sext i8 %59 to i64
  %61 = add nsw i64 %60, -97
  %62 = getelementptr inbounds [26 x i32], [26 x i32]* %4, i64 0, i64 %61
  %63 = load i32, i32* %62, align 4, !tbaa !5
  %64 = icmp eq i32 %63, 1
  br i1 %64, label %65, label %96

65:                                               ; preds = %55
  call void @llvm.lifetime.start.p0i8(i64 1, i8* nonnull %1)
  store i8 %59, i8* %1, align 1, !tbaa !9
  %66 = call nonnull align 8 dereferenceable(8) %"class.std::basic_ostream"* @_ZSt16__ostream_insertIcSt11char_traitsIcEERSt13basic_ostreamIT_T0_ES6_PKS3_l(%"class.std::basic_ostream"* nonnull align 8 dereferenceable(8) @_ZSt4cout, i8* nonnull %1, i64 1)
  call void @llvm.lifetime.end.p0i8(i64 1, i8* nonnull %1)
  %67 = bitcast %"class.std::basic_ostream"* %66 to i8**
  %68 = load i8*, i8** %67, align 8, !tbaa !12
  %69 = getelementptr i8, i8* %68, i64 -24
  %70 = bitcast i8* %69 to i64*
  %71 = load i64, i64* %70, align 8
  %72 = bitcast %"class.std::basic_ostream"* %66 to i8*
  %73 = add nsw i64 %71, 240
  %74 = getelementptr inbounds i8, i8* %72, i64 %73
  %75 = bitcast i8* %74 to %"class.std::ctype"**
  %76 = load %"class.std::ctype"*, %"class.std::ctype"** %75, align 8, !tbaa !14
  %77 = icmp eq %"class.std::ctype"* %76, null
  br i1 %77, label %78, label %79

78:                                               ; preds = %65
  call void @_ZSt16__throw_bad_castv() #11
  unreachable

79:                                               ; preds = %65
  %80 = getelementptr inbounds %"class.std::ctype", %"class.std::ctype"* %76, i64 0, i32 8
  %81 = load i8, i8* %80, align 8, !tbaa !18
  %82 = icmp eq i8 %81, 0
  br i1 %82, label %86, label %83

83:                                               ; preds = %79
  %84 = getelementptr inbounds %"class.std::ctype", %"class.std::ctype"* %76, i64 0, i32 9, i64 10
  %85 = load i8, i8* %84, align 1, !tbaa !9
  br label %92

86:                                               ; preds = %79
  call void @_ZNKSt5ctypeIcE13_M_widen_initEv(%"class.std::ctype"* nonnull align 8 dereferenceable(570) %76)
  %87 = bitcast %"class.std::ctype"* %76 to i8 (%"class.std::ctype"*, i8)***
  %88 = load i8 (%"class.std::ctype"*, i8)**, i8 (%"class.std::ctype"*, i8)*** %87, align 8, !tbaa !12
  %89 = getelementptr inbounds i8 (%"class.std::ctype"*, i8)*, i8 (%"class.std::ctype"*, i8)** %88, i64 6
  %90 = load i8 (%"class.std::ctype"*, i8)*, i8 (%"class.std::ctype"*, i8)** %89, align 8
  %91 = call signext i8 %90(%"class.std::ctype"* nonnull align 8 dereferenceable(570) %76, i8 signext 10)
  br label %92

92:                                               ; preds = %83, %86
  %93 = phi i8 [ %85, %83 ], [ %91, %86 ]
  %94 = call nonnull align 8 dereferenceable(8) %"class.std::basic_ostream"* @_ZNSo3putEc(%"class.std::basic_ostream"* nonnull align 8 dereferenceable(8) %66, i8 signext %93)
  %95 = call nonnull align 8 dereferenceable(8) %"class.std::basic_ostream"* @_ZNSo5flushEv(%"class.std::basic_ostream"* nonnull align 8 dereferenceable(8) %94)
  br label %132

96:                                               ; preds = %55
  %97 = add i64 %57, -1
  %98 = icmp eq i64 %97, %56
  br i1 %98, label %99, label %128

99:                                               ; preds = %96
  %100 = call nonnull align 8 dereferenceable(8) %"class.std::basic_ostream"* @_ZSt16__ostream_insertIcSt11char_traitsIcEERSt13basic_ostreamIT_T0_ES6_PKS3_l(%"class.std::basic_ostream"* nonnull align 8 dereferenceable(8) @_ZSt4cout, i8* nonnull getelementptr inbounds ([3 x i8], [3 x i8]* @.str, i64 0, i64 0), i64 2)
  %101 = load i8*, i8** bitcast (%"class.std::basic_ostream"* @_ZSt4cout to i8**), align 8, !tbaa !12
  %102 = getelementptr i8, i8* %101, i64 -24
  %103 = bitcast i8* %102 to i64*
  %104 = load i64, i64* %103, align 8
  %105 = add nsw i64 %104, 240
  %106 = getelementptr inbounds i8, i8* bitcast (%"class.std::basic_ostream"* @_ZSt4cout to i8*), i64 %105
  %107 = bitcast i8* %106 to %"class.std::ctype"**
  %108 = load %"class.std::ctype"*, %"class.std::ctype"** %107, align 8, !tbaa !14
  %109 = icmp eq %"class.std::ctype"* %108, null
  br i1 %109, label %110, label %111

110:                                              ; preds = %99
  call void @_ZSt16__throw_bad_castv() #11
  unreachable

111:                                              ; preds = %99
  %112 = getelementptr inbounds %"class.std::ctype", %"class.std::ctype"* %108, i64 0, i32 8
  %113 = load i8, i8* %112, align 8, !tbaa !18
  %114 = icmp eq i8 %113, 0
  br i1 %114, label %118, label %115

115:                                              ; preds = %111
  %116 = getelementptr inbounds %"class.std::ctype", %"class.std::ctype"* %108, i64 0, i32 9, i64 10
  %117 = load i8, i8* %116, align 1, !tbaa !9
  br label %124

118:                                              ; preds = %111
  call void @_ZNKSt5ctypeIcE13_M_widen_initEv(%"class.std::ctype"* nonnull align 8 dereferenceable(570) %108)
  %119 = bitcast %"class.std::ctype"* %108 to i8 (%"class.std::ctype"*, i8)***
  %120 = load i8 (%"class.std::ctype"*, i8)**, i8 (%"class.std::ctype"*, i8)*** %119, align 8, !tbaa !12
  %121 = getelementptr inbounds i8 (%"class.std::ctype"*, i8)*, i8 (%"class.std::ctype"*, i8)** %120, i64 6
  %122 = load i8 (%"class.std::ctype"*, i8)*, i8 (%"class.std::ctype"*, i8)** %121, align 8
  %123 = call signext i8 %122(%"class.std::ctype"* nonnull align 8 dereferenceable(570) %108, i8 signext 10)
  br label %124

124:                                              ; preds = %115, %118
  %125 = phi i8 [ %117, %115 ], [ %123, %118 ]
  %126 = call nonnull align 8 dereferenceable(8) %"class.std::basic_ostream"* @_ZNSo3putEc(%"class.std::basic_ostream"* nonnull align 8 dereferenceable(8) @_ZSt4cout, i8 signext %125)
  %127 = call nonnull align 8 dereferenceable(8) %"class.std::basic_ostream"* @_ZNSo5flushEv(%"class.std::basic_ostream"* nonnull align 8 dereferenceable(8) %126)
  br label %128

128:                                              ; preds = %96, %124
  %129 = add nuw i64 %56, 1
  %130 = call i64 @strlen(i8* noundef nonnull %5) #10
  %131 = icmp ugt i64 %130, %129
  br i1 %131, label %55, label %132, !llvm.loop !20

132:                                              ; preds = %128, %31, %92
  %133 = add nuw nsw i32 %12, 1
  %134 = load i32, i32* %3, align 4, !tbaa !5
  %135 = icmp slt i32 %133, %134
  br i1 %135, label %11, label %136, !llvm.loop !21

136:                                              ; preds = %132, %0
  call void @llvm.lifetime.end.p0i8(i64 104, i8* nonnull %7) #9
  call void @llvm.lifetime.end.p0i8(i64 4, i8* nonnull %6) #9
  call void @llvm.lifetime.end.p0i8(i64 100000, i8* nonnull %5) #9
  ret i32 0
}

; Function Attrs: argmemonly mustprogress nofree nosync nounwind willreturn
declare void @llvm.lifetime.start.p0i8(i64 immarg, i8* nocapture) #4

; Function Attrs: argmemonly mustprogress nofree nounwind willreturn writeonly
declare void @llvm.memset.p0i8.i64(i8* nocapture writeonly, i8, i64, i1 immarg) #5

declare nonnull align 8 dereferenceable(16) %"class.std::basic_istream"* @_ZNSirsERi(%"class.std::basic_istream"* nonnull align 8 dereferenceable(16), i32* nonnull align 4 dereferenceable(4)) local_unnamed_addr #0

; Function Attrs: argmemonly mustprogress nofree nounwind readonly willreturn
declare i64 @strlen(i8* nocapture) local_unnamed_addr #6

; Function Attrs: argmemonly mustprogress nofree nosync nounwind willreturn
declare void @llvm.lifetime.end.p0i8(i64 immarg, i8* nocapture) #4

declare void @_ZSt17__istream_extractRSiPcl(%"class.std::basic_istream"* nonnull align 8 dereferenceable(16), i8*, i64) local_unnamed_addr #0

declare nonnull align 8 dereferenceable(8) %"class.std::basic_ostream"* @_ZSt16__ostream_insertIcSt11char_traitsIcEERSt13basic_ostreamIT_T0_ES6_PKS3_l(%"class.std::basic_ostream"* nonnull align 8 dereferenceable(8), i8*, i64) local_unnamed_addr #0

declare nonnull align 8 dereferenceable(8) %"class.std::basic_ostream"* @_ZNSo3putEc(%"class.std::basic_ostream"* nonnull align 8 dereferenceable(8), i8 signext) local_unnamed_addr #0

declare nonnull align 8 dereferenceable(8) %"class.std::basic_ostream"* @_ZNSo5flushEv(%"class.std::basic_ostream"* nonnull align 8 dereferenceable(8)) local_unnamed_addr #0

; Function Attrs: noreturn
declare void @_ZSt16__throw_bad_castv() local_unnamed_addr #7

declare void @_ZNKSt5ctypeIcE13_M_widen_initEv(%"class.std::ctype"* nonnull align 8 dereferenceable(570)) local_unnamed_addr #0

; Function Attrs: sspstrong uwtable
define internal void @_GLOBAL__sub_I_756.cpp() #8 section ".text.startup" {
  tail call void @_ZNSt8ios_base4InitC1Ev(%"class.std::ios_base::Init"* nonnull align 1 dereferenceable(1) @_ZStL8__ioinit)
  %1 = tail call i32 @__cxa_atexit(void (i8*)* bitcast (void (%"class.std::ios_base::Init"*)* @_ZNSt8ios_base4InitD1Ev to void (i8*)*), i8* getelementptr inbounds (%"class.std::ios_base::Init", %"class.std::ios_base::Init"* @_ZStL8__ioinit, i64 0, i32 0), i8* nonnull @__dso_handle) #9
  ret void
}


!llvm.module.flags = !{!0, !1, !2, !3}
!llvm.ident = !{!4}

!0 = !{i32 1, !"wchar_size", i32 4}
!1 = !{i32 7, !"PIC Level", i32 2}
!2 = !{i32 7, !"PIE Level", i32 2}
!3 = !{i32 7, !"uwtable", i32 1}
!4 = !{!"clang version 13.0.0"}
!5 = !{!6, !6, i64 0}
!6 = !{!"int", !7, i64 0}
!7 = !{!"omnipotent char", !8, i64 0}
!8 = !{!"Simple C++ TBAA"}
!9 = !{!7, !7, i64 0}
!10 = distinct !{!10, !11}
!11 = !{!"llvm.loop.mustprogress"}
!12 = !{!13, !13, i64 0}
!13 = !{!"vtable pointer", !8, i64 0}
!14 = !{!15, !16, i64 240}
!15 = !{!"_ZTSSt9basic_iosIcSt11char_traitsIcEE", !16, i64 216, !7, i64 224, !17, i64 225, !16, i64 232, !16, i64 240, !16, i64 248, !16, i64 256}
!16 = !{!"any pointer", !7, i64 0}
!17 = !{!"bool", !7, i64 0}
!18 = !{!19, !7, i64 56}
!19 = !{!"_ZTSSt5ctypeIcE", !16, i64 16, !17, i64 24, !16, i64 32, !16, i64 40, !16, i64 48, !7, i64 56, !7, i64 57, !7, i64 313, !7, i64 569}
!20 = distinct !{!20, !11}
!21 = distinct !{!21, !11}
